; Function Attrs: mustprogress nounwind uwtable
define hidden noundef ptr @_ZN11SymbolTable10new_symbolEPKti(ptr noundef %0, i32 noundef %1) local_unnamed_addr #0 align 2 {
  %3 = alloca [128 x i8], align 16
  %4 = tail call noundef i32 @_ZN7UNICODE11utf8_lengthItEEiPKT_i(ptr noundef %0, i32 noundef %1) #18
  %5 = icmp slt i32 %4, 128
  br i1 %5, label %6, label %8

6:                                                ; preds = %2
  call void @_ZN7UNICODE15convert_to_utf8EPKtiPc(ptr noundef %0, i32 noundef %1, ptr noundef nonnull %3) #18
  %7 = call noundef ptr @_ZN11SymbolTable10new_symbolEPKci(ptr noundef nonnull %3, i32 noundef %4)
  br label %_ZN12ResourceMarkD2Ev.exit

8:                                                ; preds = %2
  %9 = tail call align 8 ptr @llvm.threadlocal.address.p0(ptr align 8 @_ZN6Thread12_thr_currentE)
  %10 = load ptr, ptr %9, align 8
  %11 = getelementptr inbounds i8, ptr %10, i64 800
  %12 = load ptr, ptr %11, align 8
  %13 = getelementptr inbounds i8, ptr %12, i64 24
  %14 = load ptr, ptr %13, align 8
  %15 = getelementptr inbounds i8, ptr %12, i64 32
  %16 = load ptr, ptr %15, align 8
  %17 = getelementptr inbounds i8, ptr %12, i64 40
  %18 = load ptr, ptr %17, align 8
  %19 = getelementptr inbounds i8, ptr %12, i64 8
  %20 = load i64, ptr %19, align 8
  %21 = add nuw nsw i32 %4, 1
  %22 = zext nneg i32 %21 to i64
  %23 = tail call noundef ptr @_Z23resource_allocate_bytesmN17AllocFailStrategy13AllocFailEnumE(i64 noundef %22, i32 noundef 0) #18
  tail call void @_ZN7UNICODE15convert_to_utf8EPKtiPc(ptr noundef %0, i32 noundef %1, ptr noundef %23) #18
  %24 = tail call noundef ptr @_ZN11SymbolTable10new_symbolEPKci(ptr noundef %23, i32 noundef %4)
  %25 = load ptr, ptr %14, align 8
  %.not.i.i.i.i = icmp eq ptr %25, null
  br i1 %.not.i.i.i.i, label %27, label %26

26:                                               ; preds = %8
  tail call void @_ZN5Arena17set_size_in_bytesEm(ptr noundef nonnull align 8 dereferenceable(48) %12, i64 noundef %20) #18
  tail call void @_ZN5Chunk9next_chopEPS_(ptr noundef nonnull %14) #18
  br label %27

27:                                               ; preds = %26, %8
  %28 = load ptr, ptr %15, align 8
  %.not8.i.i.i.i = icmp eq ptr %28, %16
  br i1 %.not8.i.i.i.i, label %_ZN12ResourceMarkD2Ev.exit, label %29

29:                                               ; preds = %27
  store ptr %14, ptr %13, align 8
  store ptr %16, ptr %15, align 8
  store ptr %18, ptr %17, align 8
  br label %_ZN12ResourceMarkD2Ev.exit

_ZN12ResourceMarkD2Ev.exit:                       ; preds = %29, %27, %6
  %.0 = phi ptr [ %7, %6 ], [ %24, %27 ], [ %24, %29 ]
  ret ptr %.0
}